target datalayout = "e-m:e-p270:32:32-p271:32:32-p272:64:64-i64:64-i128:128-f80:128-n8:16:32:64-S128"
target triple = "x86_64-pc-linux-gnu"

@.str = private unnamed_addr constant [100 x i8] c"generated/home/dtcxzyw/WorkSpace/Projects/compilers/llvm-opt-benchmark/bench/hdf5/hdf5/src/H5Lint.c\00", align 1
@__func__.H5L_init = private unnamed_addr constant [9 x i8] c"H5L_init\00", align 1
@H5E_LINK_g = external global i64, align 8
@H5E_NOTREGISTERED_g = external global i64, align 8
@.str.1 = private unnamed_addr constant [39 x i8] c"unable to register external link class\00", align 1

; Function Attrs: nounwind uwtable
define i32 @H5L_init() #0 {
  %1 = alloca i32, align 4
  %2 = alloca i8, align 1
  store i32 0, ptr %1, align 4
  store i8 0, ptr %2, align 1
  %3 = call i32 @H5L_register_external()
  %4 = icmp slt i32 %3, 0
  br i1 %4, label %5, label %20

5:                                                ; preds = %0
  br label %6

6:                                                ; preds = %5
  br label %7

7:                                                ; preds = %6
  br label %8

8:                                                ; preds = %7
  %9 = load i64, ptr @H5E_LINK_g, align 8
  %10 = load i64, ptr @H5E_NOTREGISTERED_g, align 8
  %11 = call i32 (ptr, ptr, i32, i64, i64, ptr, ...) @H5E_printf_stack(ptr noundef @.str, ptr noundef @__func__.H5L_init, i32 noundef 210, i64 noundef %9, i64 noundef %10, ptr noundef @.str.1)
  br label %12

12:                                               ; preds = %8
  store i8 1, ptr %2, align 1
  %13 = load i8, ptr %2, align 1
  %14 = trunc i8 %13 to i1
  %15 = zext i1 %14 to i8
  store i8 %15, ptr %2, align 1
  br label %16

16:                                               ; preds = %12
  br label %17

17:                                               ; preds = %16
  store i32 -1, ptr %1, align 4
  br label %21

18:                                               ; No predecessors!
  br label %19

19:                                               ; preds = %18
  br label %20

20:                                               ; preds = %19, %0
  br label %21

21:                                               ; preds = %20, %17
  %22 = load i32, ptr %1, align 4
  ret i32 %22
}