; Function Attrs: nounwind uwtable
define range(i32 -1, 1) i32 @H5L_init() local_unnamed_addr #0 {
  %1 = tail call i32 @H5L_register_external() #10
  %2 = icmp slt i32 %1, 0
  br i1 %2, label %3, label %7

3:                                                ; preds = %0
  %4 = load i64, ptr @H5E_LINK_g, align 8
  %5 = load i64, ptr @H5E_NOTREGISTERED_g, align 8
  %6 = tail call i32 (ptr, ptr, i32, i64, i64, ptr, ...) @H5E_printf_stack(ptr noundef nonnull @.str, ptr noundef nonnull @__func__.H5L_init, i32 noundef 210, i64 noundef %4, i64 noundef %5, ptr noundef nonnull @.str.1) #10
  br label %7

7:                                                ; preds = %0, %3
  %.0 = phi i32 [ -1, %3 ], [ 0, %0 ]
  ret i32 %.0
}